; Function Attrs: mustprogress nounwind uwtable
define internal fastcc void @_ZNSt13unordered_mapIPN3ade20MemoryDescriptorViewEN12_GLOBAL__N_110CacheEntryESt4hashIS2_ESt8equal_toIS2_ESaISt4pairIKS2_S4_EEED2Ev(ptr noundef nonnull align 8 dereferenceable(56) %0) unnamed_addr #4 align 2 personality ptr @__gxx_personality_v0 {
  %2 = getelementptr inbounds i8, ptr %0, i64 16
  %.val.i.i = load ptr, ptr %2, align 8
  %.not1.i.i.i = icmp eq ptr %.val.i.i, null
  br i1 %.not1.i.i.i, label %_ZNSt10_HashtableIPN3ade20MemoryDescriptorViewESt4pairIKS2_N12_GLOBAL__N_110CacheEntryEESaIS7_ENSt8__detail10_Select1stESt8equal_toIS2_ESt4hashIS2_ENS9_18_Mod_range_hashingENS9_20_Default_ranged_hashENS9_20_Prime_rehash_policyENS9_17_Hashtable_traitsILb0ELb0ELb1EEEE5clearEv.exit.i, label %.lr.ph.i.i.i

.lr.ph.i.i.i:                                     ; preds = %1, %.noexc.i.i
  %.02.i.i.i = phi ptr [ %.0.val.i.i.i, %.noexc.i.i ], [ %.val.i.i, %1 ]
  %.0.val.i.i.i = load ptr, ptr %.02.i.i.i, align 8
  invoke fastcc void @_ZNSt8__detail16_Hashtable_allocISaINS_10_Hash_nodeISt4pairIKPN3ade20MemoryDescriptorViewEN12_GLOBAL__N_110CacheEntryEELb0EEEEE18_M_deallocate_nodeEPSA_(ptr noundef nonnull %.02.i.i.i)
          to label %.noexc.i.i unwind label %3

.noexc.i.i:                                       ; preds = %.lr.ph.i.i.i
  %.not.i.i.i = icmp eq ptr %.0.val.i.i.i, null
  br i1 %.not.i.i.i, label %_ZNSt10_HashtableIPN3ade20MemoryDescriptorViewESt4pairIKS2_N12_GLOBAL__N_110CacheEntryEESaIS7_ENSt8__detail10_Select1stESt8equal_toIS2_ESt4hashIS2_ENS9_18_Mod_range_hashingENS9_20_Default_ranged_hashENS9_20_Prime_rehash_policyENS9_17_Hashtable_traitsILb0ELb0ELb1EEEE5clearEv.exit.i, label %.lr.ph.i.i.i, !llvm.loop !145

3:                                                ; preds = %.lr.ph.i.i.i
  %4 = landingpad { ptr, i32 }
          catch ptr null
  %5 = extractvalue { ptr, i32 } %4, 0
  tail call void @__clang_call_terminate(ptr %5) #23
  unreachable

_ZNSt10_HashtableIPN3ade20MemoryDescriptorViewESt4pairIKS2_N12_GLOBAL__N_110CacheEntryEESaIS7_ENSt8__detail10_Select1stESt8equal_toIS2_ESt4hashIS2_ENS9_18_Mod_range_hashingENS9_20_Default_ranged_hashENS9_20_Prime_rehash_policyENS9_17_Hashtable_traitsILb0ELb0ELb1EEEE5clearEv.exit.i: ; preds = %.noexc.i.i, %1
  %6 = load ptr, ptr %0, align 8
  %7 = getelementptr inbounds i8, ptr %0, i64 8
  %8 = load i64, ptr %7, align 8
  %9 = shl i64 %8, 3
  tail call void @llvm.memset.p0.i64(ptr align 8 %6, i8 0, i64 %9, i1 false)
  tail call void @llvm.memset.p0.i64(ptr noundef nonnull align 8 dereferenceable(16) %2, i8 0, i64 16, i1 false)
  %10 = load ptr, ptr %0, align 8
  %11 = getelementptr inbounds i8, ptr %0, i64 48
  %12 = icmp eq ptr %11, %10
  br i1 %12, label %_ZNSt10_HashtableIPN3ade20MemoryDescriptorViewESt4pairIKS2_N12_GLOBAL__N_110CacheEntryEESaIS7_ENSt8__detail10_Select1stESt8equal_toIS2_ESt4hashIS2_ENS9_18_Mod_range_hashingENS9_20_Default_ranged_hashENS9_20_Prime_rehash_policyENS9_17_Hashtable_traitsILb0ELb0ELb1EEEED2Ev.exit, label %13

13:                                               ; preds = %_ZNSt10_HashtableIPN3ade20MemoryDescriptorViewESt4pairIKS2_N12_GLOBAL__N_110CacheEntryEESaIS7_ENSt8__detail10_Select1stESt8equal_toIS2_ESt4hashIS2_ENS9_18_Mod_range_hashingENS9_20_Default_ranged_hashENS9_20_Prime_rehash_policyENS9_17_Hashtable_traitsILb0ELb0ELb1EEEE5clearEv.exit.i
  tail call void @_ZdlPv(ptr noundef %10) #21
  br label %_ZNSt10_HashtableIPN3ade20MemoryDescriptorViewESt4pairIKS2_N12_GLOBAL__N_110CacheEntryEESaIS7_ENSt8__detail10_Select1stESt8equal_toIS2_ESt4hashIS2_ENS9_18_Mod_range_hashingENS9_20_Default_ranged_hashENS9_20_Prime_rehash_policyENS9_17_Hashtable_traitsILb0ELb0ELb1EEEED2Ev.exit

_ZNSt10_HashtableIPN3ade20MemoryDescriptorViewESt4pairIKS2_N12_GLOBAL__N_110CacheEntryEESaIS7_ENSt8__detail10_Select1stESt8equal_toIS2_ESt4hashIS2_ENS9_18_Mod_range_hashingENS9_20_Default_ranged_hashENS9_20_Prime_rehash_policyENS9_17_Hashtable_traitsILb0ELb0ELb1EEEED2Ev.exit: ; preds = %_ZNSt10_HashtableIPN3ade20MemoryDescriptorViewESt4pairIKS2_N12_GLOBAL__N_110CacheEntryEESaIS7_ENSt8__detail10_Select1stESt8equal_toIS2_ESt4hashIS2_ENS9_18_Mod_range_hashingENS9_20_Default_ranged_hashENS9_20_Prime_rehash_policyENS9_17_Hashtable_traitsILb0ELb0ELb1EEEE5clearEv.exit.i, %13
  ret void
}